target datalayout = "e-m:e-p270:32:32-p271:32:32-p272:64:64-i64:64-i128:128-f80:128-n8:16:32:64-S128"
target triple = "x86_64-pc-linux-gnu"

; Function Attrs: alwaysinline mustprogress nounwind uwtable
define internal noundef i32 @_ZL14_mm_cvtsd_si32Dv2_d(<2 x double> noundef %0) #22 {
  %2 = alloca <2 x double>, align 16
  store <2 x double> %0, ptr %2, align 16, !tbaa !160
  %3 = load <2 x double>, ptr %2, align 16, !tbaa !160
  %4 = call i32 @llvm.x86.sse2.cvtsd2si(<2 x double> %3)
  ret i32 %4
}

; Function Attrs: alwaysinline mustprogress nounwind uwtable
define internal noundef <2 x double> @_ZL10_mm_set_sdd(double noundef %0) #22 {
  %2 = alloca double, align 8
  %3 = alloca <2 x double>, align 16
  store double %0, ptr %2, align 8, !tbaa !133
  %4 = load double, ptr %2, align 8, !tbaa !133
  %5 = insertelement <2 x double> poison, double %4, i32 0
  %6 = insertelement <2 x double> %5, double 0.000000e+00, i32 1
  store <2 x double> %6, ptr %3, align 16, !tbaa !160
  %7 = load <2 x double>, ptr %3, align 16, !tbaa !160
  ret <2 x double> %7
}

; Function Attrs: inlinehint mustprogress uwtable
define internal noundef i32 @_ZL7cvRoundd(double noundef %0) #21 {
  %2 = alloca double, align 8
  %3 = alloca <2 x double>, align 16
  store double %0, ptr %2, align 8, !tbaa !133
  call void @llvm.lifetime.start.p0(i64 16, ptr %3) #3
  %4 = load double, ptr %2, align 8, !tbaa !133
  %5 = call noundef <2 x double> @_ZL10_mm_set_sdd(double noundef %4)
  store <2 x double> %5, ptr %3, align 16, !tbaa !160
  %6 = load <2 x double>, ptr %3, align 16, !tbaa !160
  %7 = call noundef i32 @_ZL14_mm_cvtsd_si32Dv2_d(<2 x double> noundef %6)
  call void @llvm.lifetime.end.p0(i64 16, ptr %3) #3
  ret i32 %7
}

; Function Attrs: mustprogress uwtable
define internal void @_ZN2cvL10toFractionEdRiS0_(double noundef %0, ptr noundef nonnull align 4 dereferenceable(4) %1, ptr noundef nonnull align 4 dereferenceable(4) %2) #4 {
  %4 = alloca double, align 8
  %5 = alloca ptr, align 8
  %6 = alloca ptr, align 8
  %7 = alloca double, align 8
  %8 = alloca i32, align 4
  %9 = alloca double, align 8
  %10 = alloca i32, align 4
  %11 = alloca double, align 8
  %12 = alloca double, align 8
  %13 = alloca double, align 8
  %14 = alloca i32, align 4
  store double %0, ptr %4, align 8, !tbaa !133
  store ptr %1, ptr %5, align 8, !tbaa !318
  store ptr %2, ptr %6, align 8, !tbaa !318
  call void @llvm.lifetime.start.p0(i64 8, ptr %7) #3
  store double 1.000000e+00, ptr %7, align 8, !tbaa !133
  call void @llvm.lifetime.start.p0(i64 4, ptr %8) #3
  store i32 1, ptr %8, align 4, !tbaa !99
  call void @llvm.lifetime.start.p0(i64 8, ptr %9) #3
  store double 0.000000e+00, ptr %9, align 8, !tbaa !133
  call void @llvm.lifetime.start.p0(i64 4, ptr %10) #3
  store i32 1, ptr %10, align 4, !tbaa !99
  br label %15

15:                                               ; preds = %41, %3
  call void @llvm.lifetime.start.p0(i64 8, ptr %11) #3
  %16 = load i32, ptr %10, align 4, !tbaa !99
  %17 = sitofp i32 %16 to double
  %18 = load double, ptr %4, align 8, !tbaa !133
  %19 = fmul double %17, %18
  store double %19, ptr %11, align 8, !tbaa !133
  call void @llvm.lifetime.start.p0(i64 8, ptr %12) #3
  call void @llvm.lifetime.start.p0(i64 8, ptr %13) #3
  %20 = load double, ptr %11, align 8, !tbaa !133
  %21 = call double @modf(double noundef %20, ptr noundef %12) #3
  store double %21, ptr %13, align 8, !tbaa !133
  %22 = load double, ptr %13, align 8, !tbaa !133
  %23 = load double, ptr %7, align 8, !tbaa !133
  %24 = fcmp olt double %22, %23
  br i1 %24, label %25, label %33

25:                                               ; preds = %15
  %26 = load double, ptr %13, align 8, !tbaa !133
  store double %26, ptr %7, align 8, !tbaa !133
  %27 = load i32, ptr %10, align 4, !tbaa !99
  store i32 %27, ptr %8, align 4, !tbaa !99
  %28 = load double, ptr %11, align 8, !tbaa !133
  store double %28, ptr %9, align 8, !tbaa !133
  %29 = load double, ptr %7, align 8, !tbaa !133
  %30 = fcmp olt double %29, 0x3E80000000000000
  br i1 %30, label %31, label %32

31:                                               ; preds = %25
  store i32 2, ptr %14, align 4
  br label %38

32:                                               ; preds = %25
  br label %33

33:                                               ; preds = %32, %15
  %34 = load i32, ptr %10, align 4, !tbaa !99
  %35 = icmp eq i32 %34, 100
  br i1 %35, label %36, label %37

36:                                               ; preds = %33
  store i32 2, ptr %14, align 4
  br label %38

37:                                               ; preds = %33
  store i32 0, ptr %14, align 4
  br label %38

38:                                               ; preds = %37, %36, %31
  call void @llvm.lifetime.end.p0(i64 8, ptr %13) #3
  call void @llvm.lifetime.end.p0(i64 8, ptr %12) #3
  call void @llvm.lifetime.end.p0(i64 8, ptr %11) #3
  %39 = load i32, ptr %14, align 4
  switch i32 %39, label %44 [
    i32 0, label %40
  ]

40:                                               ; preds = %38
  br label %41

41:                                               ; preds = %40
  %42 = load i32, ptr %10, align 4, !tbaa !99
  %43 = add nsw i32 %42, 1
  store i32 %43, ptr %10, align 4, !tbaa !99
  br label %15, !llvm.loop !328

44:                                               ; preds = %38
  call void @llvm.lifetime.end.p0(i64 4, ptr %10) #3
  br label %45

45:                                               ; preds = %44
  %46 = load double, ptr %9, align 8, !tbaa !133
  %47 = call noundef i32 @_ZL7cvRoundd(double noundef %46)
  %48 = load ptr, ptr %5, align 8, !tbaa !318
  store i32 %47, ptr %48, align 4, !tbaa !99
  %49 = load i32, ptr %8, align 4, !tbaa !99
  %50 = load ptr, ptr %6, align 8, !tbaa !318
  store i32 %49, ptr %50, align 4, !tbaa !99
  call void @llvm.lifetime.end.p0(i64 8, ptr %9) #3
  call void @llvm.lifetime.end.p0(i64 4, ptr %8) #3
  call void @llvm.lifetime.end.p0(i64 8, ptr %7) #3
  ret void
}