; Function Attrs: mustprogress nofree nounwind memory(argmem: write) uwtable
define internal fastcc void @_ZN2cvL10toFractionEdRiS0_(double noundef %0, ptr noundef nonnull writeonly align 4 captures(none) dereferenceable(4) %1, ptr noundef nonnull writeonly align 4 captures(none) dereferenceable(4) %2) unnamed_addr #18 {
  %4 = alloca double, align 8
  br label %5

5:                                                ; preds = %13, %3
  %.020 = phi double [ 0.000000e+00, %3 ], [ %.121, %13 ]
  %.019 = phi i32 [ 1, %3 ], [ %14, %13 ]
  %.016 = phi i32 [ 1, %3 ], [ %.117, %13 ]
  %.015 = phi double [ 1.000000e+00, %3 ], [ %.1, %13 ]
  %6 = uitofp nneg i32 %.019 to double
  %7 = fmul double %0, %6
  call void @llvm.lifetime.start.p0(i64 8, ptr nonnull %4) #30
  %8 = call double @modf(double noundef %7, ptr noundef nonnull %4) #30
  %9 = fcmp olt double %8, %.015
  br i1 %9, label %10, label %12

10:                                               ; preds = %5
  %11 = fcmp olt double %8, 0x3E80000000000000
  br i1 %11, label %.thread, label %12

.thread:                                          ; preds = %10
  call void @llvm.lifetime.end.p0(i64 8, ptr nonnull %4) #30
  br label %.loopexit

12:                                               ; preds = %5, %10
  %.121 = phi double [ %7, %10 ], [ %.020, %5 ]
  %.117 = phi i32 [ %.019, %10 ], [ %.016, %5 ]
  %.1 = phi double [ %8, %10 ], [ %.015, %5 ]
  %.not = icmp eq i32 %.019, 100
  call void @llvm.lifetime.end.p0(i64 8, ptr nonnull %4) #30
  br i1 %.not, label %.loopexit, label %13

13:                                               ; preds = %12
  %14 = add nuw nsw i32 %.019, 1
  br label %5, !llvm.loop !598

.loopexit:                                        ; preds = %12, %.thread
  %.21829 = phi i32 [ %.019, %.thread ], [ %.117, %12 ]
  %.22228 = phi double [ %7, %.thread ], [ %.121, %12 ]
  %15 = insertelement <2 x double> poison, double %.22228, i64 0
  %16 = tail call noundef i32 @llvm.x86.sse2.cvtsd2si(<2 x double> %15)
  store i32 %16, ptr %1, align 4, !tbaa !354
  store i32 %.21829, ptr %2, align 4, !tbaa !354
  ret void
}